; ModuleID = 'source-C-CXX/52/262.c'
source_filename = "source-C-CXX/52/262.c"
target datalayout = "e-m:e-p270:32:32-p271:32:32-p272:64:64-i64:64-f80:128-n8:16:32:64-S128"
target triple = "x86_64-pc-linux-gnu"

@.str = private unnamed_addr constant [3 x i8] c"%d\00", align 1
@.str.1 = private unnamed_addr constant [4 x i8] c"%d,\00", align 1
@.str.2 = private unnamed_addr constant [4 x i8] c"%d\0A\00", align 1

; Function Attrs: nofree nounwind sspstrong uwtable
define dso_local i32 @main() local_unnamed_addr #0 {
  %1 = alloca i32, align 4
  %2 = alloca [300 x i32], align 16
  %3 = alloca [300 x i32], align 16
  %4 = bitcast i32* %1 to i8*
  call void @llvm.lifetime.start.p0i8(i64 4, i8* nonnull %4) #3
  %5 = bitcast [300 x i32]* %2 to i8*
  call void @llvm.lifetime.start.p0i8(i64 1200, i8* nonnull %5) #3
  %6 = bitcast [300 x i32]* %3 to i8*
  call void @llvm.lifetime.start.p0i8(i64 1200, i8* nonnull %6) #3
  %7 = call i32 (i8*, ...) @__isoc99_scanf(i8* getelementptr inbounds ([3 x i8], [3 x i8]* @.str, i64 0, i64 0), i32* nonnull %1)
  %8 = load i32, i32* %1, align 4, !tbaa !5
  %9 = icmp sgt i32 %8, 0
  br i1 %9, label %10, label %74

10:                                               ; preds = %0, %10
  %11 = phi i64 [ %14, %10 ], [ 0, %0 ]
  %12 = getelementptr inbounds [300 x i32], [300 x i32]* %2, i64 0, i64 %11
  %13 = call i32 (i8*, ...) @__isoc99_scanf(i8* getelementptr inbounds ([3 x i8], [3 x i8]* @.str, i64 0, i64 0), i32* nonnull %12)
  %14 = add nuw nsw i64 %11, 1
  %15 = load i32, i32* %1, align 4, !tbaa !5
  %16 = sext i32 %15 to i64
  %17 = icmp slt i64 %14, %16
  br i1 %17, label %10, label %18, !llvm.loop !9

18:                                               ; preds = %10
  %19 = getelementptr inbounds [300 x i32], [300 x i32]* %2, i64 0, i64 0
  %20 = load i32, i32* %19, align 16, !tbaa !5
  %21 = getelementptr inbounds [300 x i32], [300 x i32]* %3, i64 0, i64 0
  store i32 %20, i32* %21, align 16, !tbaa !5
  %22 = icmp sgt i32 %15, 0
  br i1 %22, label %23, label %74

23:                                               ; preds = %18
  %24 = zext i32 %15 to i64
  br label %25

25:                                               ; preds = %23, %48
  %26 = phi i32 [ %31, %48 ], [ 1, %23 ]
  %27 = phi i32 [ %50, %48 ], [ 0, %23 ]
  %28 = sext i32 %27 to i64
  br label %29

29:                                               ; preds = %25, %63
  %30 = phi i64 [ %28, %25 ], [ %65, %63 ]
  %31 = phi i32 [ %26, %25 ], [ %64, %63 ]
  %32 = icmp sgt i32 %31, 0
  br i1 %32, label %33, label %55

33:                                               ; preds = %29
  %34 = getelementptr inbounds [300 x i32], [300 x i32]* %2, i64 0, i64 %30
  %35 = load i32, i32* %34, align 4, !tbaa !5
  %36 = zext i32 %31 to i64
  br label %43

37:                                               ; preds = %48, %63
  %38 = phi i32 [ %64, %63 ], [ %31, %48 ]
  %39 = add i32 %38, -1
  %40 = icmp sgt i32 %38, 1
  br i1 %40, label %41, label %74

41:                                               ; preds = %37
  %42 = zext i32 %39 to i64
  br label %67

43:                                               ; preds = %33, %52
  %44 = phi i64 [ 0, %33 ], [ %53, %52 ]
  %45 = getelementptr inbounds [300 x i32], [300 x i32]* %3, i64 0, i64 %44
  %46 = load i32, i32* %45, align 4, !tbaa !5
  %47 = icmp eq i32 %35, %46
  br i1 %47, label %48, label %52

48:                                               ; preds = %43
  %49 = trunc i64 %30 to i32
  %50 = add nsw i32 %49, 1
  %51 = icmp slt i32 %50, %15
  br i1 %51, label %25, label %37

52:                                               ; preds = %43
  %53 = add nuw nsw i64 %44, 1
  %54 = icmp eq i64 %53, %36
  br i1 %54, label %57, label %43, !llvm.loop !11

55:                                               ; preds = %29
  %56 = icmp eq i32 %31, 0
  br i1 %56, label %57, label %63

57:                                               ; preds = %52, %55
  %58 = getelementptr inbounds [300 x i32], [300 x i32]* %2, i64 0, i64 %30
  %59 = load i32, i32* %58, align 4, !tbaa !5
  %60 = sext i32 %31 to i64
  %61 = getelementptr inbounds [300 x i32], [300 x i32]* %3, i64 0, i64 %60
  store i32 %59, i32* %61, align 4, !tbaa !5
  %62 = add nsw i32 %31, 1
  br label %63

63:                                               ; preds = %55, %57
  %64 = phi i32 [ %62, %57 ], [ %31, %55 ]
  %65 = add nsw i64 %30, 1
  %66 = icmp slt i64 %65, %24
  br i1 %66, label %29, label %37, !llvm.loop !12

67:                                               ; preds = %41, %67
  %68 = phi i64 [ 0, %41 ], [ %72, %67 ]
  %69 = getelementptr inbounds [300 x i32], [300 x i32]* %3, i64 0, i64 %68
  %70 = load i32, i32* %69, align 4, !tbaa !5
  %71 = call i32 (i8*, ...) @printf(i8* nonnull dereferenceable(1) getelementptr inbounds ([4 x i8], [4 x i8]* @.str.1, i64 0, i64 0), i32 %70)
  %72 = add nuw nsw i64 %68, 1
  %73 = icmp eq i64 %72, %42
  br i1 %73, label %74, label %67, !llvm.loop !13

74:                                               ; preds = %67, %0, %18, %37
  %75 = phi i32 [ %39, %37 ], [ 0, %18 ], [ 0, %0 ], [ %39, %67 ]
  %76 = sext i32 %75 to i64
  %77 = getelementptr inbounds [300 x i32], [300 x i32]* %3, i64 0, i64 %76
  %78 = load i32, i32* %77, align 4, !tbaa !5
  %79 = call i32 (i8*, ...) @printf(i8* nonnull dereferenceable(1) getelementptr inbounds ([4 x i8], [4 x i8]* @.str.2, i64 0, i64 0), i32 %78)
  call void @llvm.lifetime.end.p0i8(i64 1200, i8* nonnull %6) #3
  call void @llvm.lifetime.end.p0i8(i64 1200, i8* nonnull %5) #3
  call void @llvm.lifetime.end.p0i8(i64 4, i8* nonnull %4) #3
  ret i32 0
}

; Function Attrs: argmemonly mustprogress nofree nosync nounwind willreturn
declare void @llvm.lifetime.start.p0i8(i64 immarg, i8* nocapture) #1

; Function Attrs: nofree nounwind
declare noundef i32 @__isoc99_scanf(i8* nocapture noundef readonly, ...) local_unnamed_addr #2

; Function Attrs: nofree nounwind
declare noundef i32 @printf(i8* nocapture noundef readonly, ...) local_unnamed_addr #2

; Function Attrs: argmemonly mustprogress nofree nosync nounwind willreturn
declare void @llvm.lifetime.end.p0i8(i64 immarg, i8* nocapture) #1


!llvm.module.flags = !{!0, !1, !2, !3}
!llvm.ident = !{!4}

!0 = !{i32 1, !"wchar_size", i32 4}
!1 = !{i32 7, !"PIC Level", i32 2}
!2 = !{i32 7, !"PIE Level", i32 2}
!3 = !{i32 7, !"uwtable", i32 1}
!4 = !{!"clang version 13.0.0"}
!5 = !{!6, !6, i64 0}
!6 = !{!"int", !7, i64 0}
!7 = !{!"omnipotent char", !8, i64 0}
!8 = !{!"Simple C/C++ TBAA"}
!9 = distinct !{!9, !10}
!10 = !{!"llvm.loop.mustprogress"}
!11 = distinct !{!11, !10}
!12 = distinct !{!12, !10}
!13 = distinct !{!13, !10}
